; Function Attrs: mustprogress nofree norecurse nosync nounwind willreturn memory(read, argmem: none, inaccessiblemem: none) uwtable
define hidden noundef zeroext i1 @_ZN25ShenandoahCollectorPolicy26should_handle_requested_gcEN7GCCause5CauseE(i32 noundef %0) local_unnamed_addr #5 align 2 {
  %2 = load i8, ptr @DisableExplicitGC, align 1
  %3 = trunc i8 %2 to i1
  br i1 %3, label %4, label %_Z14is_explicit_gcN7GCCause5CauseE.exit

4:                                                ; preds = %1
  switch i32 %0, label %5 [
    i32 23, label %_Z14is_explicit_gcN7GCCause5CauseE.exit
    i32 0, label %_Z14is_explicit_gcN7GCCause5CauseE.exit
  ]

5:                                                ; preds = %4
  %6 = and i32 %0, -3
  %or.cond.i.i = icmp ne i32 %6, 4
  %7 = icmp ne i32 %0, 7
  %spec.select.i.i.not = and i1 %7, %or.cond.i.i
  br label %_Z14is_explicit_gcN7GCCause5CauseE.exit

_Z14is_explicit_gcN7GCCause5CauseE.exit:          ; preds = %5, %4, %4, %1
  %.0 = phi i1 [ true, %1 ], [ false, %4 ], [ %spec.select.i.i.not, %5 ], [ false, %4 ]
  ret i1 %.0
}